target datalayout = "e-m:e-p270:32:32-p271:32:32-p272:64:64-i64:64-i128:128-f80:128-n8:16:32:64-S128"
target triple = "x86_64-pc-linux-gnu"

%struct.PHP_MURMUR3A_CTX = type { i32, i32, i32 }

; Function Attrs: nounwind uwtable
define void @PHP_MURMUR3AUpdate(ptr noundef %0, ptr noundef %1, i64 noundef %2) #0 {
  %4 = alloca ptr, align 8
  %5 = alloca ptr, align 8
  %6 = alloca i64, align 8
  store ptr %0, ptr %4, align 8
  store ptr %1, ptr %5, align 8
  store i64 %2, ptr %6, align 8
  %7 = load i64, ptr %6, align 8
  %8 = load ptr, ptr %4, align 8
  %9 = getelementptr inbounds %struct.PHP_MURMUR3A_CTX, ptr %8, i32 0, i32 2
  %10 = load i32, ptr %9, align 4
  %11 = zext i32 %10 to i64
  %12 = add i64 %11, %7
  %13 = trunc i64 %12 to i32
  store i32 %13, ptr %9, align 4
  %14 = load ptr, ptr %4, align 8
  %15 = getelementptr inbounds %struct.PHP_MURMUR3A_CTX, ptr %14, i32 0, i32 0
  %16 = load ptr, ptr %4, align 8
  %17 = getelementptr inbounds %struct.PHP_MURMUR3A_CTX, ptr %16, i32 0, i32 1
  %18 = load ptr, ptr %5, align 8
  %19 = load i64, ptr %6, align 8
  %20 = trunc i64 %19 to i32
  call void @PMurHash32_Process(ptr noundef %15, ptr noundef %17, ptr noundef %18, i32 noundef %20)
  ret void
}