; Function Attrs: nounwind uwtable
define void @PHP_MURMUR3AUpdate(ptr noundef %0, ptr noundef %1, i64 noundef %2) #0 {
  %4 = getelementptr inbounds i8, ptr %0, i64 8
  %5 = load i32, ptr %4, align 4
  %6 = trunc i64 %2 to i32
  %7 = add i32 %5, %6
  store i32 %7, ptr %4, align 4
  %8 = getelementptr inbounds i8, ptr %0, i64 4
  tail call void @PMurHash32_Process(ptr noundef %0, ptr noundef nonnull %8, ptr noundef %1, i32 noundef %6) #5
  ret void
}